target datalayout = "e-m:e-p270:32:32-p271:32:32-p272:64:64-i64:64-i128:128-f80:128-n8:16:32:64-S128"
target triple = "x86_64-pc-linux-gnu"

%struct.nghttp2_nv = type { ptr, ptr, i64, i64, i8 }
%struct.nghttp2_frame_hd = type { i64, i32, i8, i8, i8 }
%struct.nghttp2_headers = type { %struct.nghttp2_frame_hd, i64, %struct.nghttp2_priority_spec, ptr, i64, i32 }
%struct.nghttp2_priority_spec = type { i32, i32, i8 }

@stdout = external global ptr, align 8
@.str.25 = private unnamed_addr constant [3 x i8] c": \00", align 1
@.str.26 = private unnamed_addr constant [2 x i8] c"\0A\00", align 1
@.str.29 = private unnamed_addr constant [52 x i8] c"[INFO] C <---------------------------- S (HEADERS)\0A\00", align 1
@.str.30 = private unnamed_addr constant [55 x i8] c"[INFO] C <---------------------------- S (RST_STREAM)\0A\00", align 1
@.str.31 = private unnamed_addr constant [51 x i8] c"[INFO] C <---------------------------- S (GOAWAY)\0A\00", align 1

; Function Attrs: nounwind uwtable
define internal i32 @on_frame_recv_callback(ptr noundef %0, ptr noundef %1, ptr noundef %2) #0 {
  %4 = alloca ptr, align 8
  %5 = alloca ptr, align 8
  %6 = alloca ptr, align 8
  %7 = alloca i64, align 8
  %8 = alloca ptr, align 8
  %9 = alloca ptr, align 8
  store ptr %0, ptr %4, align 8, !tbaa !84
  store ptr %1, ptr %5, align 8, !tbaa !85
  store ptr %2, ptr %6, align 8, !tbaa !85
  call void @llvm.lifetime.start.p0(i64 8, ptr %7) #11
  %10 = load ptr, ptr %5, align 8, !tbaa !85
  %11 = getelementptr inbounds nuw %struct.nghttp2_frame_hd, ptr %10, i32 0, i32 2
  %12 = load i8, ptr %11, align 4, !tbaa !12
  %13 = zext i8 %12 to i32
  switch i32 %13, label %75 [
    i32 1, label %14
    i32 3, label %71
    i32 7, label %73
  ]

14:                                               ; preds = %3
  %15 = load ptr, ptr %5, align 8, !tbaa !85
  %16 = getelementptr inbounds nuw %struct.nghttp2_headers, ptr %15, i32 0, i32 5
  %17 = load i32, ptr %16, align 8, !tbaa !12
  %18 = icmp eq i32 %17, 1
  br i1 %18, label %19, label %70

19:                                               ; preds = %14
  call void @llvm.lifetime.start.p0(i64 8, ptr %8) #11
  %20 = load ptr, ptr %5, align 8, !tbaa !85
  %21 = getelementptr inbounds nuw %struct.nghttp2_headers, ptr %20, i32 0, i32 3
  %22 = load ptr, ptr %21, align 8, !tbaa !12
  store ptr %22, ptr %8, align 8, !tbaa !85
  call void @llvm.lifetime.start.p0(i64 8, ptr %9) #11
  %23 = load ptr, ptr %4, align 8, !tbaa !84
  %24 = load ptr, ptr %5, align 8, !tbaa !85
  %25 = getelementptr inbounds nuw %struct.nghttp2_frame_hd, ptr %24, i32 0, i32 1
  %26 = load i32, ptr %25, align 8, !tbaa !12
  %27 = call ptr @nghttp2_session_get_stream_user_data(ptr noundef %23, i32 noundef %26)
  store ptr %27, ptr %9, align 8, !tbaa !53
  %28 = load ptr, ptr %9, align 8, !tbaa !53
  %29 = icmp ne ptr %28, null
  br i1 %29, label %30, label %69

30:                                               ; preds = %19
  %31 = call i32 (ptr, ...) @printf(ptr noundef @.str.29)
  store i64 0, ptr %7, align 8, !tbaa !19
  br label %32

32:                                               ; preds = %65, %30
  %33 = load i64, ptr %7, align 8, !tbaa !19
  %34 = load ptr, ptr %5, align 8, !tbaa !85
  %35 = getelementptr inbounds nuw %struct.nghttp2_headers, ptr %34, i32 0, i32 4
  %36 = load i64, ptr %35, align 8, !tbaa !12
  %37 = icmp ult i64 %33, %36
  br i1 %37, label %38, label %68

38:                                               ; preds = %32
  %39 = load ptr, ptr %8, align 8, !tbaa !85
  %40 = load i64, ptr %7, align 8, !tbaa !19
  %41 = getelementptr inbounds nuw %struct.nghttp2_nv, ptr %39, i64 %40
  %42 = getelementptr inbounds nuw %struct.nghttp2_nv, ptr %41, i32 0, i32 0
  %43 = load ptr, ptr %42, align 8, !tbaa !75
  %44 = load ptr, ptr %8, align 8, !tbaa !85
  %45 = load i64, ptr %7, align 8, !tbaa !19
  %46 = getelementptr inbounds nuw %struct.nghttp2_nv, ptr %44, i64 %45
  %47 = getelementptr inbounds nuw %struct.nghttp2_nv, ptr %46, i32 0, i32 2
  %48 = load i64, ptr %47, align 8, !tbaa !78
  %49 = load ptr, ptr @stdout, align 8, !tbaa !15
  %50 = call i64 @fwrite(ptr noundef %43, i64 noundef 1, i64 noundef %48, ptr noundef %49)
  %51 = call i32 (ptr, ...) @printf(ptr noundef @.str.25)
  %52 = load ptr, ptr %8, align 8, !tbaa !85
  %53 = load i64, ptr %7, align 8, !tbaa !19
  %54 = getelementptr inbounds nuw %struct.nghttp2_nv, ptr %52, i64 %53
  %55 = getelementptr inbounds nuw %struct.nghttp2_nv, ptr %54, i32 0, i32 1
  %56 = load ptr, ptr %55, align 8, !tbaa !77
  %57 = load ptr, ptr %8, align 8, !tbaa !85
  %58 = load i64, ptr %7, align 8, !tbaa !19
  %59 = getelementptr inbounds nuw %struct.nghttp2_nv, ptr %57, i64 %58
  %60 = getelementptr inbounds nuw %struct.nghttp2_nv, ptr %59, i32 0, i32 3
  %61 = load i64, ptr %60, align 8, !tbaa !79
  %62 = load ptr, ptr @stdout, align 8, !tbaa !15
  %63 = call i64 @fwrite(ptr noundef %56, i64 noundef 1, i64 noundef %61, ptr noundef %62)
  %64 = call i32 (ptr, ...) @printf(ptr noundef @.str.26)
  br label %65

65:                                               ; preds = %38
  %66 = load i64, ptr %7, align 8, !tbaa !19
  %67 = add i64 %66, 1
  store i64 %67, ptr %7, align 8, !tbaa !19
  br label %32, !llvm.loop !87

68:                                               ; preds = %32
  br label %69

69:                                               ; preds = %68, %19
  call void @llvm.lifetime.end.p0(i64 8, ptr %9) #11
  call void @llvm.lifetime.end.p0(i64 8, ptr %8) #11
  br label %70

70:                                               ; preds = %69, %14
  br label %75

71:                                               ; preds = %3
  %72 = call i32 (ptr, ...) @printf(ptr noundef @.str.30)
  br label %75

73:                                               ; preds = %3
  %74 = call i32 (ptr, ...) @printf(ptr noundef @.str.31)
  br label %75

75:                                               ; preds = %3, %73, %71, %70
  call void @llvm.lifetime.end.p0(i64 8, ptr %7) #11
  ret i32 0
}