; Function Attrs: nounwind uwtable
define internal noundef i32 @on_frame_recv_callback(ptr noundef %0, ptr noundef readonly captures(none) %1, ptr readnone captures(none) %2) #0 {
  %4 = getelementptr inbounds nuw i8, ptr %1, i64 12
  %5 = load i8, ptr %4, align 4, !tbaa !4
  switch i8 %5, label %.loopexit [
    i8 1, label %6
    i8 3, label %.loopexit.sink.split
    i8 7, label %35
  ]

6:                                                ; preds = %3
  %7 = getelementptr inbounds nuw i8, ptr %1, i64 56
  %8 = load i32, ptr %7, align 8, !tbaa !4
  %9 = icmp eq i32 %8, 1
  br i1 %9, label %10, label %.loopexit

10:                                               ; preds = %6
  %11 = getelementptr inbounds nuw i8, ptr %1, i64 40
  %12 = load ptr, ptr %11, align 8, !tbaa !4
  %13 = getelementptr inbounds nuw i8, ptr %1, i64 8
  %14 = load i32, ptr %13, align 8, !tbaa !4
  %15 = tail call ptr @nghttp2_session_get_stream_user_data(ptr noundef %0, i32 noundef %14) #16
  %.not = icmp eq ptr %15, null
  br i1 %.not, label %.loopexit, label %16

16:                                               ; preds = %10
  %puts17 = tail call i32 @puts(ptr nonnull dereferenceable(1) @str.6)
  %17 = getelementptr inbounds nuw i8, ptr %1, i64 48
  %18 = load i64, ptr %17, align 8, !tbaa !4
  %.not19 = icmp eq i64 %18, 0
  br i1 %.not19, label %.loopexit, label %.lr.ph

.lr.ph:                                           ; preds = %16, %.lr.ph
  %.018 = phi i64 [ %32, %.lr.ph ], [ 0, %16 ]
  %19 = getelementptr inbounds nuw %struct.nghttp2_nv, ptr %12, i64 %.018
  %20 = load ptr, ptr %19, align 8, !tbaa !45
  %21 = getelementptr inbounds nuw i8, ptr %19, i64 16
  %22 = load i64, ptr %21, align 8, !tbaa !49
  %23 = load ptr, ptr @stdout, align 8, !tbaa !56
  %24 = tail call i64 @fwrite(ptr noundef %20, i64 noundef 1, i64 noundef %22, ptr noundef %23)
  %25 = tail call i32 (ptr, ...) @printf(ptr noundef nonnull dereferenceable(1) @.str.25)
  %26 = getelementptr inbounds nuw i8, ptr %19, i64 8
  %27 = load ptr, ptr %26, align 8, !tbaa !48
  %28 = getelementptr inbounds nuw i8, ptr %19, i64 24
  %29 = load i64, ptr %28, align 8, !tbaa !50
  %30 = load ptr, ptr @stdout, align 8, !tbaa !56
  %31 = tail call i64 @fwrite(ptr noundef %27, i64 noundef 1, i64 noundef %29, ptr noundef %30)
  %putchar = tail call i32 @putchar(i32 10)
  %32 = add nuw i64 %.018, 1
  %33 = load i64, ptr %17, align 8, !tbaa !4
  %34 = icmp ult i64 %32, %33
  br i1 %34, label %.lr.ph, label %.loopexit, !llvm.loop !59

35:                                               ; preds = %3
  br label %.loopexit.sink.split

.loopexit.sink.split:                             ; preds = %3, %35
  %str.4.sink = phi ptr [ @str.4, %35 ], [ @str.5, %3 ]
  %puts = tail call i32 @puts(ptr nonnull dereferenceable(1) %str.4.sink)
  br label %.loopexit

.loopexit:                                        ; preds = %.lr.ph, %.loopexit.sink.split, %16, %10, %6, %3
  ret i32 0
}